; Function Attrs: nounwind uwtable
define noalias ptr @_emalloc_896() local_unnamed_addr #0 {
  %1 = load ptr, ptr @alloc_globals.0, align 8
  %2 = load i32, ptr %1, align 8
  %.not = icmp eq i32 %2, 0
  br i1 %.not, label %7, label %3

3:                                                ; preds = %0
  %4 = getelementptr inbounds i8, ptr %1, i64 360
  %5 = load ptr, ptr %4, align 8
  %6 = tail call ptr %5(i64 noundef 896) #35
  br label %zend_mm_alloc_small_slow.exit

7:                                                ; preds = %0
  %8 = getelementptr inbounds i8, ptr %1, i64 16
  %9 = load i64, ptr %8, align 8
  %10 = add i64 %9, 896
  %11 = getelementptr inbounds i8, ptr %1, i64 24
  %12 = load i64, ptr %11, align 8
  %. = tail call i64 @llvm.umax.i64(i64 %12, i64 %10)
  store i64 %10, ptr %8, align 8
  store i64 %., ptr %11, align 8
  %13 = getelementptr inbounds i8, ptr %1, i64 208
  %14 = load ptr, ptr %13, align 8
  %.not25 = icmp eq ptr %14, null
  br i1 %.not25, label %17, label %15

15:                                               ; preds = %7
  %16 = load ptr, ptr %14, align 8
  store ptr %16, ptr %13, align 8
  br label %zend_mm_alloc_small_slow.exit

17:                                               ; preds = %7
  %18 = tail call fastcc ptr @zend_mm_alloc_pages(ptr noundef nonnull %1, i32 noundef 2)
  %19 = icmp eq ptr %18, null
  br i1 %19, label %zend_mm_alloc_small_slow.exit, label %.loopexit.i

.loopexit.i:                                      ; preds = %17
  %20 = ptrtoint ptr %18 to i64
  %21 = and i64 %20, -2097152
  %22 = inttoptr i64 %21 to ptr
  %23 = trunc i64 %20 to i32
  %24 = lshr i32 %23, 12
  %25 = and i32 %24, 511
  %26 = getelementptr inbounds i8, ptr %22, i64 520
  %27 = zext nneg i32 %25 to i64
  %28 = getelementptr inbounds [512 x i32], ptr %26, i64 0, i64 %27
  store i32 -2147483626, ptr %28, align 4
  %29 = add nuw nsw i32 %25, 1
  %30 = zext nneg i32 %29 to i64
  %31 = getelementptr inbounds [512 x i32], ptr %26, i64 0, i64 %30
  store i32 -1073676266, ptr %31, align 4
  %.ptr26 = getelementptr inbounds i8, ptr %18, i64 896
  store ptr %.ptr26, ptr %13, align 8
  br label %32

32:                                               ; preds = %32, %.loopexit.i
  %.034.i.idx = phi i64 [ 896, %.loopexit.i ], [ %.034.i.add, %32 ]
  %.034.i.ptr = getelementptr inbounds i8, ptr %18, i64 %.034.i.idx
  %.034.i.add = add nuw nsw i64 %.034.i.idx, 896
  %.ptr = getelementptr inbounds i8, ptr %18, i64 %.034.i.add
  store ptr %.ptr, ptr %.034.i.ptr, align 8
  %.not37.i = icmp eq i64 %.034.i.add, 7168
  br i1 %.not37.i, label %33, label %32

33:                                               ; preds = %32
  %34 = getelementptr inbounds i8, ptr %18, i64 7168
  store ptr null, ptr %34, align 8
  br label %zend_mm_alloc_small_slow.exit

zend_mm_alloc_small_slow.exit:                    ; preds = %33, %17, %15, %3
  %.0 = phi ptr [ %6, %3 ], [ %14, %15 ], [ null, %17 ], [ %18, %33 ]
  ret ptr %.0
}